target datalayout = "e-m:e-p270:32:32-p271:32:32-p272:64:64-i64:64-i128:128-f80:128-n8:16:32:64-S128"
target triple = "x86_64-pc-linux-gnu"

%struct._packet_info = type { ptr, ptr, i32, i32, %struct.nstime_t, %struct.nstime_t, %struct.nstime_t, i8, ptr, ptr, ptr, ptr, %struct._address, %struct._address, %struct._address, %struct._address, %struct._address, %struct._address, i32, ptr, i8, [3 x i8], %struct.anon, i32, i32, i32, i32, ptr, i8, ptr, ptr, i16, i16, i32, i32, i16, i32, i32, ptr, ptr, ptr, i8, i8, i16, i16, i16, i32, i16, i16, ptr, ptr, ptr, ptr, ptr, i32, i32 }
%struct.nstime_t = type { i64, i32 }
%struct._address = type { i32, i32, ptr, ptr }
%struct.anon = type { i8, [3 x i8] }

@hf_sapdiag_payload = internal global i32 0, align 4
@hf_sapdiag_compress_header = internal global i32 0, align 4
@hf_sapdiag_uncomplength = internal global i32 0, align 4
@hf_sapdiag_algorithm = internal global i32 0, align 4
@hf_sapdiag_magic = internal global i32 0, align 4
@hf_sapdiag_special = internal global i32 0, align 4
@ett_sapdiag = internal global i32 0, align 4
@.str.846 = private unnamed_addr constant [23 x i8] c", Uncompressed Len: %u\00", align 1
@.str.847 = private unnamed_addr constant [25 x i8] c" Uncompressed Length=%u \00", align 1

; Function Attrs: null_pointer_is_valid sspstrong uwtable
define internal void @dissect_sapdiag_compressed_payload(ptr noundef %0, ptr noundef %1, ptr noundef %2, ptr noundef %3, i32 noundef %4) #0 {
  %6 = alloca ptr, align 8
  %7 = alloca ptr, align 8
  %8 = alloca ptr, align 8
  %9 = alloca ptr, align 8
  %10 = alloca i32, align 4
  %11 = alloca i32, align 4
  %12 = alloca ptr, align 8
  %13 = alloca ptr, align 8
  store ptr %0, ptr %6, align 8
  store ptr %1, ptr %7, align 8
  store ptr %2, ptr %8, align 8
  store ptr %3, ptr %9, align 8
  store i32 %4, ptr %10, align 4
  call void @llvm.lifetime.start.p0(i64 4, ptr %11) #3
  store i32 0, ptr %11, align 4
  call void @llvm.lifetime.start.p0(i64 8, ptr %12) #3
  store ptr null, ptr %12, align 8
  call void @llvm.lifetime.start.p0(i64 8, ptr %13) #3
  store ptr null, ptr %13, align 8
  %14 = load ptr, ptr %8, align 8
  %15 = load i32, ptr @hf_sapdiag_compress_header, align 4
  %16 = load ptr, ptr %6, align 8
  %17 = load i32, ptr %10, align 4
  %18 = call ptr @proto_tree_add_item(ptr noundef %14, i32 noundef %15, ptr noundef %16, i32 noundef %17, i32 noundef 8, i32 noundef 0)
  store ptr %18, ptr %12, align 8
  %19 = load ptr, ptr %12, align 8
  %20 = load i32, ptr @ett_sapdiag, align 4
  %21 = call ptr @proto_item_add_subtree(ptr noundef %19, i32 noundef %20)
  store ptr %21, ptr %13, align 8
  %22 = load ptr, ptr %6, align 8
  %23 = load i32, ptr %10, align 4
  %24 = call i32 @tvb_get_letohl(ptr noundef %22, i32 noundef %23)
  store i32 %24, ptr %11, align 4
  %25 = load ptr, ptr %13, align 8
  %26 = load i32, ptr @hf_sapdiag_uncomplength, align 4
  %27 = load ptr, ptr %6, align 8
  %28 = load i32, ptr %10, align 4
  %29 = load i32, ptr %11, align 4
  %30 = call ptr @proto_tree_add_uint(ptr noundef %25, i32 noundef %26, ptr noundef %27, i32 noundef %28, i32 noundef 4, i32 noundef %29)
  %31 = load i32, ptr %10, align 4
  %32 = add i32 %31, 4
  store i32 %32, ptr %10, align 4
  %33 = load ptr, ptr %9, align 8
  %34 = load i32, ptr %11, align 4
  call void (ptr, ptr, ...) @proto_item_append_text(ptr noundef %33, ptr noundef @.str.846, i32 noundef %34)
  %35 = load ptr, ptr %7, align 8
  %36 = getelementptr inbounds nuw %struct._packet_info, ptr %35, i32 0, i32 1
  %37 = load ptr, ptr %36, align 8
  %38 = load i32, ptr %11, align 4
  call void (ptr, i32, ptr, ...) @col_append_fstr(ptr noundef %37, i32 noundef 25, ptr noundef @.str.847, i32 noundef %38)
  %39 = load ptr, ptr %13, align 8
  %40 = load i32, ptr @hf_sapdiag_algorithm, align 4
  %41 = load ptr, ptr %6, align 8
  %42 = load i32, ptr %10, align 4
  %43 = call ptr @proto_tree_add_item(ptr noundef %39, i32 noundef %40, ptr noundef %41, i32 noundef %42, i32 noundef 1, i32 noundef 0)
  %44 = load i32, ptr %10, align 4
  %45 = add i32 %44, 1
  store i32 %45, ptr %10, align 4
  %46 = load ptr, ptr %13, align 8
  %47 = load i32, ptr @hf_sapdiag_magic, align 4
  %48 = load ptr, ptr %6, align 8
  %49 = load i32, ptr %10, align 4
  %50 = call ptr @proto_tree_add_item(ptr noundef %46, i32 noundef %47, ptr noundef %48, i32 noundef %49, i32 noundef 2, i32 noundef 0)
  %51 = load i32, ptr %10, align 4
  %52 = add i32 %51, 2
  store i32 %52, ptr %10, align 4
  %53 = load ptr, ptr %13, align 8
  %54 = load i32, ptr @hf_sapdiag_special, align 4
  %55 = load ptr, ptr %6, align 8
  %56 = load i32, ptr %10, align 4
  %57 = call ptr @proto_tree_add_item(ptr noundef %53, i32 noundef %54, ptr noundef %55, i32 noundef %56, i32 noundef 1, i32 noundef 0)
  %58 = load i32, ptr %10, align 4
  %59 = add i32 %58, 1
  store i32 %59, ptr %10, align 4
  %60 = load ptr, ptr %8, align 8
  %61 = load i32, ptr @hf_sapdiag_payload, align 4
  %62 = load ptr, ptr %6, align 8
  %63 = load i32, ptr %10, align 4
  %64 = call ptr @proto_tree_add_item(ptr noundef %60, i32 noundef %61, ptr noundef %62, i32 noundef %63, i32 noundef -1, i32 noundef 0)
  call void @llvm.lifetime.end.p0(i64 8, ptr %13) #3
  call void @llvm.lifetime.end.p0(i64 8, ptr %12) #3
  call void @llvm.lifetime.end.p0(i64 4, ptr %11) #3
  ret void
}