; Function Attrs: null_pointer_is_valid sspstrong uwtable
define internal fastcc void @dissect_sapdiag_compressed_payload(ptr noundef %0, ptr noundef readonly captures(none) %1, ptr noundef %2, ptr noundef %3, i32 noundef range(i32 0, 209) %4) unnamed_addr #0 {
  %6 = load i32, ptr @hf_sapdiag_compress_header, align 4
  %7 = tail call ptr @proto_tree_add_item(ptr noundef %2, i32 noundef %6, ptr noundef %0, i32 noundef %4, i32 noundef 8, i32 noundef 0)
  %8 = load i32, ptr @ett_sapdiag, align 4
  %9 = tail call ptr @proto_item_add_subtree(ptr noundef %7, i32 noundef %8)
  %10 = tail call i32 @tvb_get_letohl(ptr noundef %0, i32 noundef %4)
  %11 = load i32, ptr @hf_sapdiag_uncomplength, align 4
  %12 = tail call ptr @proto_tree_add_uint(ptr noundef %9, i32 noundef %11, ptr noundef %0, i32 noundef %4, i32 noundef 4, i32 noundef %10)
  %13 = add nuw nsw i32 %4, 4
  tail call void (ptr, ptr, ...) @proto_item_append_text(ptr noundef %3, ptr noundef nonnull @.str.846, i32 noundef %10)
  %14 = getelementptr inbounds nuw i8, ptr %1, i64 8
  %15 = load ptr, ptr %14, align 8
  tail call void (ptr, i32, ptr, ...) @col_append_fstr(ptr noundef %15, i32 noundef 25, ptr noundef nonnull @.str.847, i32 noundef %10)
  %16 = load i32, ptr @hf_sapdiag_algorithm, align 4
  %17 = tail call ptr @proto_tree_add_item(ptr noundef %9, i32 noundef %16, ptr noundef %0, i32 noundef %13, i32 noundef 1, i32 noundef 0)
  %18 = add nuw nsw i32 %4, 5
  %19 = load i32, ptr @hf_sapdiag_magic, align 4
  %20 = tail call ptr @proto_tree_add_item(ptr noundef %9, i32 noundef %19, ptr noundef %0, i32 noundef %18, i32 noundef 2, i32 noundef 0)
  %21 = add nuw nsw i32 %4, 7
  %22 = load i32, ptr @hf_sapdiag_special, align 4
  %23 = tail call ptr @proto_tree_add_item(ptr noundef %9, i32 noundef %22, ptr noundef %0, i32 noundef %21, i32 noundef 1, i32 noundef 0)
  %24 = add nuw nsw i32 %4, 8
  %25 = load i32, ptr @hf_sapdiag_payload, align 4
  %26 = tail call ptr @proto_tree_add_item(ptr noundef %2, i32 noundef %25, ptr noundef %0, i32 noundef %24, i32 noundef -1, i32 noundef 0)
  ret void
}